target datalayout = "e-m:e-p270:32:32-p271:32:32-p272:64:64-i64:64-i128:128-f80:128-n8:16:32:64-S128"
target triple = "x86_64-pc-linux-gnu"

@.str.1478 = private unnamed_addr constant [20 x i8] c"Bluetooth HCI Event\00", align 1
@.str.1479 = private unnamed_addr constant [8 x i8] c"HCI_EVT\00", align 1
@.str.1480 = private unnamed_addr constant [10 x i8] c"bthci_evt\00", align 1
@proto_bthci_evt = internal global i32 0, align 4
@bthci_evt_handle = internal global ptr null, align 8
@.str.1481 = private unnamed_addr constant [10 x i8] c"Bluetooth\00", align 1
@.str.1482 = private unnamed_addr constant [16 x i8] c"hci_evt.version\00", align 1
@.str.1483 = private unnamed_addr constant [47 x i8] c"Bluetooth HCI version: 4.0 (Core) + Addendum 4\00", align 1
@.str.1484 = private unnamed_addr constant [49 x i8] c"Version of protocol supported by this dissector.\00", align 1
@.str.1485 = private unnamed_addr constant [17 x i8] c"bthci_evt.vendor\00", align 1
@.str.1486 = private unnamed_addr constant [20 x i8] c"BT HCI Event Vendor\00", align 1
@hci_evt_vendor_dissector_table = internal global ptr null, align 8

; Function Attrs: null_pointer_is_valid sspstrong uwtable
define hidden void @proto_register_bthci_evt() #1 {
  %1 = alloca ptr, align 8
  %2 = alloca ptr, align 8
  call void @llvm.lifetime.start.p0(i64 8, ptr %1) #11
  call void @llvm.lifetime.start.p0(i64 8, ptr %2) #11
  %3 = call i32 @proto_register_protocol(ptr noundef @.str.1478, ptr noundef @.str.1479, ptr noundef @.str.1480)
  store i32 %3, ptr @proto_bthci_evt, align 4
  %4 = load i32, ptr @proto_bthci_evt, align 4
  %5 = call ptr @register_dissector(ptr noundef @.str.1480, ptr noundef @dissect_bthci_evt, i32 noundef %4)
  store ptr %5, ptr @bthci_evt_handle, align 8
  %6 = load i32, ptr @proto_bthci_evt, align 4
  call void @proto_register_field_array(i32 noundef %6, ptr noundef @proto_register_bthci_evt.hf, i32 noundef 734)
  call void @proto_register_subtree_array(ptr noundef @proto_register_bthci_evt.ett, i32 noundef 34)
  %7 = load i32, ptr @proto_bthci_evt, align 4
  %8 = call ptr @expert_register_protocol(i32 noundef %7)
  store ptr %8, ptr %2, align 8
  %9 = load ptr, ptr %2, align 8
  call void @expert_register_field_array(ptr noundef %9, ptr noundef @proto_register_bthci_evt.ei, i32 noundef 10)
  %10 = load i32, ptr @proto_bthci_evt, align 4
  %11 = call ptr @prefs_register_protocol_subtree(ptr noundef @.str.1481, i32 noundef %10, ptr noundef null)
  store ptr %11, ptr %1, align 8
  %12 = load ptr, ptr %1, align 8
  call void @prefs_register_static_text_preference(ptr noundef %12, ptr noundef @.str.1482, ptr noundef @.str.1483, ptr noundef @.str.1484)
  call void @register_decode_as(ptr noundef @proto_register_bthci_evt.bthci_evt_vendor_da)
  %13 = load i32, ptr @proto_bthci_evt, align 4
  %14 = call ptr @register_decode_as_next_proto(i32 noundef %13, ptr noundef @.str.1485, ptr noundef @.str.1486, ptr noundef @bthci_evt_vendor_prompt)
  store ptr %14, ptr @hci_evt_vendor_dissector_table, align 8
  call void @llvm.lifetime.end.p0(i64 8, ptr %2) #11
  call void @llvm.lifetime.end.p0(i64 8, ptr %1) #11
  ret void
}