; Function Attrs: null_pointer_is_valid sspstrong uwtable
define hidden void @proto_register_bthci_evt() local_unnamed_addr #1 {
  %1 = tail call i32 @proto_register_protocol(ptr noundef nonnull @.str.1478, ptr noundef nonnull @.str.1479, ptr noundef nonnull @.str.1480)
  store i32 %1, ptr @proto_bthci_evt, align 4
  %2 = tail call ptr @register_dissector(ptr noundef nonnull @.str.1480, ptr noundef nonnull @dissect_bthci_evt, i32 noundef %1)
  store ptr %2, ptr @bthci_evt_handle, align 8
  %3 = load i32, ptr @proto_bthci_evt, align 4
  tail call void @proto_register_field_array(i32 noundef %3, ptr noundef nonnull @proto_register_bthci_evt.hf, i32 noundef 734)
  tail call void @proto_register_subtree_array(ptr noundef nonnull @proto_register_bthci_evt.ett, i32 noundef 34)
  %4 = load i32, ptr @proto_bthci_evt, align 4
  %5 = tail call ptr @expert_register_protocol(i32 noundef %4)
  tail call void @expert_register_field_array(ptr noundef %5, ptr noundef nonnull @proto_register_bthci_evt.ei, i32 noundef 10)
  %6 = load i32, ptr @proto_bthci_evt, align 4
  %7 = tail call ptr @prefs_register_protocol_subtree(ptr noundef nonnull @.str.1481, i32 noundef %6, ptr noundef null)
  tail call void @prefs_register_static_text_preference(ptr noundef %7, ptr noundef nonnull @.str.1482, ptr noundef nonnull @.str.1483, ptr noundef nonnull @.str.1484)
  tail call void @register_decode_as(ptr noundef nonnull @proto_register_bthci_evt.bthci_evt_vendor_da)
  %8 = load i32, ptr @proto_bthci_evt, align 4
  %9 = tail call ptr @register_decode_as_next_proto(i32 noundef %8, ptr noundef nonnull @.str.1485, ptr noundef nonnull @.str.1486, ptr noundef nonnull @bthci_evt_vendor_prompt)
  store ptr %9, ptr @hci_evt_vendor_dissector_table, align 8
  ret void
}